; Function Attrs: mustprogress uwtable
define internal void @_ZN7V3Sched12_GLOBAL__N_116VirtIfaceVisitor5visitEP16AstNodeProcedure(ptr noundef nonnull align 8 dereferenceable(176) %0, ptr noundef nonnull %1) unnamed_addr #3 align 2 personality ptr @__gxx_personality_v0 {
  %3 = getelementptr inbounds nuw i8, ptr %0, i64 48
  %4 = load ptr, ptr %3, align 8, !tbaa !130
  store ptr null, ptr %3, align 8, !tbaa !131
  %5 = getelementptr inbounds nuw i8, ptr %0, i64 56
  %6 = load ptr, ptr %5, align 8, !tbaa !132
  store ptr null, ptr %5, align 8, !tbaa !133
  invoke void @_ZN7AstNode15iterateChildrenER9VNVisitor(ptr noundef nonnull align 8 dereferenceable(152) %1, ptr noundef nonnull align 8 dereferenceable(32) %0)
          to label %_ZN9VNVisitor15iterateChildrenEP7AstNode.exit unwind label %7

_ZN9VNVisitor15iterateChildrenEP7AstNode.exit:    ; preds = %2
  store ptr %6, ptr %5, align 8, !tbaa !132
  store ptr %4, ptr %3, align 8, !tbaa !130
  ret void

7:                                                ; preds = %2
  %8 = landingpad { ptr, i32 }
          cleanup
  store ptr %6, ptr %5, align 8, !tbaa !132
  store ptr %4, ptr %3, align 8, !tbaa !130
  resume { ptr, i32 } %8
}